(lp0
(S'AH_Y'
p1
S'V_T'
p2
tp3
a(S'AH_A'
p4
g2
tp5
a(S'AH_OE'
p6
g2
tp7
a(S'AH_E'
p8
g2
tp9
a(S'AE_Y'
p10
g2
tp11
a(S'AE_A'
p12
g2
tp13
a(S'AE_OE'
p14
g2
tp15
a(S'AE_E'
p16
g2
tp17
a(S'UH_U'
p18
S'V_V'
p19
tp20
a(S'UH_Y'
p21
g19
tp22
a(S'UH_A'
p23
g19
tp24
a(S'UH_O'
p25
g19
tp26
a(S'UH_E'
p27
g19
tp28
a(S'AE_U'
p29
g19
tp30
a(S'AE_Y'
p31
g19
tp32
a(S'AE_A'
p33
g19
tp34
a(S'AE_O'
p35
g19
tp36
a(S'AE_E'
p37
g19
tp38
a(S'AH_U'
p39
g19
tp40
a(S'AH_Y'
p41
g19
tp42
a(S'AH_A'
p43
g19
tp44
a(S'AH_O'
p45
g19
tp46
a(S'AH_E'
p47
g19
tp48
a(S'UH_Y'
p49
S'V_P'
p50
tp51
a(S'UH_U'
p52
g50
tp53
a(S'UH_O'
p54
g50
tp55
a(S'UH_E'
p56
g50
tp57
a(S'UH_OE'
p58
g50
tp59
a(S'AH_Y'
p60
g50
tp61
a(S'AH_U'
p62
g50
tp63
a(S'AH_O'
p64
g50
tp65
a(S'AH_E'
p66
g50
tp67
a(S'AH_OE'
p68
g50
tp69
a(S'AE_Y'
p70
g50
tp71
a(S'AE_U'
p72
g50
tp73
a(S'AE_O'
p74
g50
tp75
a(S'AE_E'
p76
g50
tp77
a(S'AE_OE'
p78
g50
tp79
a(S'UH_A'
p80
S'V_S'
p81
tp82
a(S'UH_U'
p83
g81
tp84
a(S'UH_OE'
p85
g81
tp86
a(S'UH_Y'
p87
g81
tp88
a(S'UH_E'
p89
g81
tp90
a(S'UH_O'
p91
g81
tp92
a(S'AH_A'
p93
g81
tp94
a(S'AH_U'
p95
g81
tp96
a(S'AH_OE'
p97
g81
tp98
a(S'AH_Y'
p99
g81
tp100
a(S'AH_E'
p101
g81
tp102
a(S'AH_O'
p103
g81
tp104
a(S'AE_A'
p105
g81
tp106
a(S'AE_U'
p107
g81
tp108
a(S'AE_OE'
p109
g81
tp110
a(S'AE_Y'
p111
g81
tp112
a(S'AE_E'
p113
g81
tp114
a(S'AE_O'
p115
g81
tp116
a(S'UH_Y'
p117
S'V_Z'
p118
tp119
a(S'UH_OE'
p120
g118
tp121
a(S'UH_U'
p122
g118
tp123
a(S'UH_E'
p124
g118
tp125
a(S'UH_O'
p126
g118
tp127
a(S'AH_Y'
p128
g118
tp129
a(S'AH_OE'
p130
g118
tp131
a(S'AH_U'
p132
g118
tp133
a(S'AH_E'
p134
g118
tp135
a(S'AH_O'
p136
g118
tp137
a(S'AE_Y'
p138
g118
tp139
a(S'AE_OE'
p140
g118
tp141
a(S'AE_U'
p142
g118
tp143
a(S'AE_E'
p144
g118
tp145
a(S'AE_O'
p146
g118
tp147
a(S'UH_U'
p148
S'V_D'
p149
tp150
a(S'UH_O'
p151
g149
tp152
a(S'UH_E'
p153
g149
tp154
a(S'UH_OE'
p155
g149
tp156
a(S'UH_Y'
p157
g149
tp158
a(S'UH_A'
p159
g149
tp160
a(S'AH_U'
p161
g149
tp162
a(S'AH_O'
p163
g149
tp164
a(S'AH_E'
p165
g149
tp166
a(S'AH_OE'
p167
g149
tp168
a(S'AH_Y'
p169
g149
tp170
a(S'AH_A'
p171
g149
tp172
a(S'AE_U'
p173
g149
tp174
a(S'AE_O'
p175
g149
tp176
a(S'AE_E'
p177
g149
tp178
a(S'AE_OE'
p179
g149
tp180
a(S'AE_Y'
p181
g149
tp182
a(S'AE_A'
p183
g149
tp184
a(S'UH_U'
p185
S'V_F'
p186
tp187
a(S'UH_Y'
p188
g186
tp189
a(S'UH_A'
p190
g186
tp191
a(S'UH_O'
p192
g186
tp193
a(S'UH_E'
p194
g186
tp195
a(S'AH_U'
p196
g186
tp197
a(S'AH_Y'
p198
g186
tp199
a(S'AH_A'
p200
g186
tp201
a(S'AH_O'
p202
g186
tp203
a(S'AH_E'
p204
g186
tp205
a(S'AE_U'
p206
g186
tp207
a(S'AE_Y'
p208
g186
tp209
a(S'AE_A'
p210
g186
tp211
a(S'AE_O'
p212
g186
tp213
a(S'AE_E'
p214
g186
tp215
a(S'UH_Y'
p216
S'V_G'
p217
tp218
a(S'UH_I'
p219
g217
tp220
a(S'UH_U'
p221
g217
tp222
a(S'UH_E'
p223
g217
tp224
a(S'UH_OE'
p225
g217
tp226
a(S'IH_Y'
p227
g217
tp228
a(S'IH_I'
p229
g217
tp230
a(S'IH_U'
p231
g217
tp232
a(S'IH_E'
p233
g217
tp234
a(S'IH_OE'
p235
g217
tp236
a(S'AH_Y'
p237
g217
tp238
a(S'AH_I'
p239
g217
tp240
a(S'AH_U'
p241
g217
tp242
a(S'AH_E'
p243
g217
tp244
a(S'AH_OE'
p245
g217
tp246
a(S'AE_Y'
p247
g217
tp248
a(S'AE_I'
p249
g217
tp250
a(S'AE_U'
p251
g217
tp252
a(S'AE_E'
p253
g217
tp254
a(S'AE_OE'
p255
g217
tp256
a(S'UH_Y'
p257
S'V_B'
p258
tp259
a(S'UH_OE'
p260
g258
tp261
a(S'UH_A'
p262
g258
tp263
a(S'UH_I'
p264
g258
tp265
a(S'UH_O'
p266
g258
tp267
a(S'UH_U'
p268
g258
tp269
a(S'UH_E'
p270
g258
tp271
a(S'IH_Y'
p272
g258
tp273
a(S'IH_OE'
p274
g258
tp275
a(S'IH_A'
p276
g258
tp277
a(S'IH_I'
p278
g258
tp279
a(S'IH_O'
p280
g258
tp281
a(S'IH_U'
p282
g258
tp283
a(S'IH_E'
p284
g258
tp285
a(S'AH_Y'
p286
g258
tp287
a(S'AH_OE'
p288
g258
tp289
a(S'AH_A'
p290
g258
tp291
a(S'AH_I'
p292
g258
tp293
a(S'AH_O'
p294
g258
tp295
a(S'AH_U'
p296
g258
tp297
a(S'AH_E'
p298
g258
tp299
a(S'AE_Y'
p300
g258
tp301
a(S'AE_OE'
p302
g258
tp303
a(S'AE_A'
p304
g258
tp305
a(S'AE_I'
p306
g258
tp307
a(S'AE_O'
p308
g258
tp309
a(S'AE_U'
p310
g258
tp311
a(S'AE_E'
p312
g258
tp313
a(S'AH_O'
p314
S'S_SH'
p315
tp316
a(S'AH_OE'
p317
g315
tp318
a(S'AH_I'
p319
g315
tp320
a(S'AH_Y'
p321
g315
tp322
a(S'IH_O'
p323
g315
tp324
a(S'IH_OE'
p325
g315
tp326
a(S'IH_I'
p327
g315
tp328
a(S'IH_Y'
p329
g315
tp330
a(S'UH_I'
p331
S'V_K'
p332
tp333
a(S'UH_Y'
p334
g332
tp335
a(S'UH_O'
p336
g332
tp337
a(S'UH_U'
p338
g332
tp339
a(S'UH_E'
p340
g332
tp341
a(S'UH_OE'
p342
g332
tp343
a(S'IH_I'
p344
g332
tp345
a(S'IH_Y'
p346
g332
tp347
a(S'IH_O'
p348
g332
tp349
a(S'IH_U'
p350
g332
tp351
a(S'IH_E'
p352
g332
tp353
a(S'IH_OE'
p354
g332
tp355
a(S'AH_I'
p356
g332
tp357
a(S'AH_Y'
p358
g332
tp359
a(S'AH_O'
p360
g332
tp361
a(S'AH_U'
p362
g332
tp363
a(S'AH_E'
p364
g332
tp365
a(S'AH_OE'
p366
g332
tp367
a(S'AE_I'
p368
g332
tp369
a(S'AE_Y'
p370
g332
tp371
a(S'AE_O'
p372
g332
tp373
a(S'AE_U'
p374
g332
tp375
a(S'AE_E'
p376
g332
tp377
a(S'AE_OE'
p378
g332
tp379
a(S'UH_U'
p380
S'F_D'
p381
tp382
a(S'UH_I'
p383
g381
tp384
a(S'IH_U'
p385
g381
tp386
a(S'IH_I'
p387
g381
tp388
a(S'AH_OE'
p389
S'F_T'
p390
tp391
a(S'AH_O'
p392
g390
tp393
a(S'AE_OE'
p394
S'F_F'
p395
tp396
a(S'AE_O'
p397
g395
tp398
a(S'AE_E'
p399
g395
tp400
a(S'AE_Y'
p401
g395
tp402
a(S'AE_A'
p403
g395
tp404
a(S'AH_OE'
p405
g395
tp406
a(S'AH_O'
p407
g395
tp408
a(S'AH_E'
p409
g395
tp410
a(S'AH_Y'
p411
g395
tp412
a(S'AH_A'
p413
g395
tp414
a(S'AH_OE'
p415
S'F_G'
p416
tp417
a(S'AE_E'
p418
S'SH_D'
p419
tp420
a(S'AE_Y'
p421
g419
tp422
a(S'AE_I'
p423
g419
tp424
a(S'AE_A'
p425
g419
tp426
a(S'AE_OE'
p427
g419
tp428
a(S'IH_E'
p429
g419
tp430
a(S'IH_Y'
p431
g419
tp432
a(S'IH_I'
p433
g419
tp434
a(S'IH_A'
p435
g419
tp436
a(S'IH_OE'
p437
g419
tp438
a(S'AH_E'
p439
g419
tp440
a(S'AH_Y'
p441
g419
tp442
a(S'AH_I'
p443
g419
tp444
a(S'AH_A'
p445
g419
tp446
a(S'AH_OE'
p447
g419
tp448
a(S'AH_I'
p449
S'F_B'
p450
tp451
a(S'AH_U'
p452
g450
tp453
a(S'AH_OE'
p454
g450
tp455
a(S'AH_O'
p456
g450
tp457
a(S'AH_Y'
p458
g450
tp459
a(S'UH_I'
p460
g450
tp461
a(S'UH_U'
p462
g450
tp463
a(S'UH_OE'
p464
g450
tp465
a(S'UH_O'
p466
g450
tp467
a(S'UH_Y'
p468
g450
tp469
a(S'IH_U'
p470
S'SH_G'
p471
tp472
a(S'IH_I'
p473
g471
tp474
a(S'UH_U'
p475
g471
tp476
a(S'UH_I'
p477
g471
tp478
a(S'AE_E'
p479
S'SH_SH'
p480
tp481
a(S'AH_Y'
p482
S'SH_K'
p483
tp484
a(S'AH_OE'
p485
g483
tp486
a(S'IH_I'
p487
S'F_K'
p488
tp489
a(S'AE_E'
p490
S'SH_P'
p491
tp492
a(S'AE_Y'
p493
g491
tp494
a(S'AE_U'
p495
g491
tp496
a(S'AE_A'
p497
g491
tp498
a(S'AE_OE'
p499
g491
tp500
a(S'UH_E'
p501
g491
tp502
a(S'UH_Y'
p503
g491
tp504
a(S'UH_U'
p505
g491
tp506
a(S'UH_A'
p507
g491
tp508
a(S'UH_OE'
p509
g491
tp510
a(S'AH_E'
p511
g491
tp512
a(S'AH_Y'
p513
g491
tp514
a(S'AH_U'
p515
g491
tp516
a(S'AH_A'
p517
g491
tp518
a(S'AH_OE'
p519
g491
tp520
a(S'IH_U'
p521
S'F_V'
p522
tp523
a(S'IH_I'
p524
g522
tp525
a(S'UH_U'
p526
g522
tp527
a(S'UH_I'
p528
g522
tp529
a(S'IH_E'
p530
S'SH_S'
p531
tp532
a(S'IH_Y'
p533
g531
tp534
a(S'IH_I'
p535
g531
tp536
a(S'IH_U'
p537
g531
tp538
a(S'IH_OE'
p539
g531
tp540
a(S'AE_E'
p541
g531
tp542
a(S'AE_Y'
p543
g531
tp544
a(S'AE_I'
p545
g531
tp546
a(S'AE_U'
p547
g531
tp548
a(S'AE_OE'
p549
g531
tp550
a(S'UH_E'
p551
g531
tp552
a(S'UH_Y'
p553
g531
tp554
a(S'UH_I'
p555
g531
tp556
a(S'UH_U'
p557
g531
tp558
a(S'UH_OE'
p559
g531
tp560
a(S'AH_E'
p561
g531
tp562
a(S'AH_Y'
p563
g531
tp564
a(S'AH_I'
p565
g531
tp566
a(S'AH_U'
p567
g531
tp568
a(S'AH_OE'
p569
g531
tp570
a(S'AH_U'
p571
S'F_P'
p572
tp573
a(S'AH_O'
p574
g572
tp575
a(S'AH_OE'
p576
g572
tp577
a(S'AH_I'
p578
g572
tp579
a(S'AH_Y'
p580
g572
tp581
a(S'IH_U'
p582
g572
tp583
a(S'IH_O'
p584
g572
tp585
a(S'IH_OE'
p586
g572
tp587
a(S'IH_I'
p588
g572
tp589
a(S'IH_Y'
p590
g572
tp591
a(S'UH_U'
p592
g572
tp593
a(S'UH_O'
p594
g572
tp595
a(S'UH_OE'
p596
g572
tp597
a(S'UH_I'
p598
g572
tp599
a(S'UH_Y'
p600
g572
tp601
a(S'AE_I'
p602
S'SH_V'
p603
tp604
a(S'AE_A'
p605
g603
tp606
a(S'AE_Y'
p607
g603
tp608
a(S'AE_U'
p609
g603
tp610
a(S'AE_OE'
p611
g603
tp612
a(S'AE_E'
p613
g603
tp614
a(S'UH_I'
p615
g603
tp616
a(S'UH_A'
p617
g603
tp618
a(S'UH_Y'
p619
g603
tp620
a(S'UH_U'
p621
g603
tp622
a(S'UH_OE'
p623
g603
tp624
a(S'UH_E'
p625
g603
tp626
a(S'AH_I'
p627
g603
tp628
a(S'AH_A'
p629
g603
tp630
a(S'AH_Y'
p631
g603
tp632
a(S'AH_U'
p633
g603
tp634
a(S'AH_OE'
p635
g603
tp636
a(S'AH_E'
p637
g603
tp638
a(S'AH_OE'
p639
S'SH_T'
p640
tp641
a(S'IH_A'
p642
S'SH_Z'
p643
tp644
a(S'IH_Y'
p645
g643
tp646
a(S'IH_I'
p647
g643
tp648
a(S'IH_OE'
p649
g643
tp650
a(S'AH_A'
p651
g643
tp652
a(S'AH_Y'
p653
g643
tp654
a(S'AH_I'
p655
g643
tp656
a(S'AH_OE'
p657
g643
tp658
a(S'AE_U'
p659
S'F_Z'
p660
tp661
a(S'AE_E'
p662
g660
tp663
a(S'UH_U'
p664
g660
tp665
a(S'UH_E'
p666
g660
tp667
a(S'AE_U'
p668
S'V_SH'
p669
tp670
a(S'AE_Y'
p671
g669
tp672
a(S'AE_E'
p673
g669
tp674
a(S'AE_O'
p675
g669
tp676
a(S'AE_I'
p677
g669
tp678
a(S'AE_OE'
p679
g669
tp680
a(S'IH_U'
p681
g669
tp682
a(S'IH_Y'
p683
g669
tp684
a(S'IH_E'
p685
g669
tp686
a(S'IH_O'
p687
g669
tp688
a(S'IH_I'
p689
g669
tp690
a(S'IH_OE'
p691
g669
tp692
a(S'AH_U'
p693
g669
tp694
a(S'AH_Y'
p695
g669
tp696
a(S'AH_E'
p697
g669
tp698
a(S'AH_O'
p699
g669
tp700
a(S'AH_I'
p701
g669
tp702
a(S'AH_OE'
p703
g669
tp704
a(S'UH_U'
p705
g669
tp706
a(S'UH_Y'
p707
g669
tp708
a(S'UH_E'
p709
g669
tp710
a(S'UH_O'
p711
g669
tp712
a(S'UH_I'
p713
g669
tp714
a(S'UH_OE'
p715
g669
tp716
a(S'IH_Y'
p717
S'Z_F'
p718
tp719
a(S'IH_A'
p720
g718
tp721
a(S'IH_I'
p722
g718
tp723
a(S'IH_O'
p724
g718
tp725
a(S'IH_U'
p726
g718
tp727
a(S'IH_E'
p728
g718
tp729
a(S'IH_OE'
p730
g718
tp731
a(S'AH_Y'
p732
g718
tp733
a(S'AH_A'
p734
g718
tp735
a(S'AH_I'
p736
g718
tp737
a(S'AH_O'
p738
g718
tp739
a(S'AH_U'
p740
g718
tp741
a(S'AH_E'
p742
g718
tp743
a(S'AH_OE'
p744
g718
tp745
a(S'AE_Y'
p746
g718
tp747
a(S'AE_A'
p748
g718
tp749
a(S'AE_I'
p750
g718
tp751
a(S'AE_O'
p752
g718
tp753
a(S'AE_U'
p754
g718
tp755
a(S'AE_E'
p756
g718
tp757
a(S'AE_OE'
p758
g718
tp759
a(S'UH_Y'
p760
g718
tp761
a(S'UH_A'
p762
g718
tp763
a(S'UH_I'
p764
g718
tp765
a(S'UH_O'
p766
g718
tp767
a(S'UH_U'
p768
g718
tp769
a(S'UH_E'
p770
g718
tp771
a(S'UH_OE'
p772
g718
tp773
a(S'IH_I'
p774
S'Z_G'
p775
tp776
a(S'IH_Y'
p777
g775
tp778
a(S'IH_O'
p779
g775
tp780
a(S'IH_U'
p781
g775
tp782
a(S'IH_OE'
p783
g775
tp784
a(S'IH_A'
p785
g775
tp786
a(S'AH_I'
p787
g775
tp788
a(S'AH_Y'
p789
g775
tp790
a(S'AH_O'
p791
g775
tp792
a(S'AH_U'
p793
g775
tp794
a(S'AH_OE'
p795
g775
tp796
a(S'AH_A'
p797
g775
tp798
a(S'UH_I'
p799
g775
tp800
a(S'UH_Y'
p801
g775
tp802
a(S'UH_O'
p803
g775
tp804
a(S'UH_U'
p805
g775
tp806
a(S'UH_OE'
p807
g775
tp808
a(S'UH_A'
p809
g775
tp810
a(S'IH_A'
p811
S'SH_B'
p812
tp813
a(S'IH_E'
p814
g812
tp815
a(S'IH_Y'
p816
g812
tp817
a(S'IH_O'
p818
g812
tp819
a(S'IH_I'
p820
g812
tp821
a(S'IH_U'
p822
g812
tp823
a(S'IH_OE'
p824
g812
tp825
a(S'AE_A'
p826
g812
tp827
a(S'AE_E'
p828
g812
tp829
a(S'AE_Y'
p830
g812
tp831
a(S'AE_O'
p832
g812
tp833
a(S'AE_I'
p834
g812
tp835
a(S'AE_U'
p836
g812
tp837
a(S'AE_OE'
p838
g812
tp839
a(S'UH_A'
p840
g812
tp841
a(S'UH_E'
p842
g812
tp843
a(S'UH_Y'
p844
g812
tp845
a(S'UH_O'
p846
g812
tp847
a(S'UH_I'
p848
g812
tp849
a(S'UH_U'
p850
g812
tp851
a(S'UH_OE'
p852
g812
tp853
a(S'AH_A'
p854
g812
tp855
a(S'AH_E'
p856
g812
tp857
a(S'AH_Y'
p858
g812
tp859
a(S'AH_O'
p860
g812
tp861
a(S'AH_I'
p862
g812
tp863
a(S'AH_U'
p864
g812
tp865
a(S'AH_OE'
p866
g812
tp867
a(S'UH_O'
p868
S'F_SH'
p869
tp870
a(S'UH_U'
p871
g869
tp872
a(S'UH_OE'
p873
g869
tp874
a(S'UH_E'
p875
g869
tp876
a(S'UH_Y'
p877
g869
tp878
a(S'AE_O'
p879
g869
tp880
a(S'AE_U'
p881
g869
tp882
a(S'AE_OE'
p883
g869
tp884
a(S'AE_E'
p885
g869
tp886
a(S'AE_Y'
p887
g869
tp888
a(S'AH_O'
p889
g869
tp890
a(S'AH_U'
p891
g869
tp892
a(S'AH_OE'
p893
g869
tp894
a(S'AH_E'
p895
g869
tp896
a(S'AH_Y'
p897
g869
tp898
a(S'AH_A'
p899
S'SH_F'
p900
tp901
a(S'AH_Y'
p902
g900
tp903
a(S'AH_I'
p904
g900
tp905
a(S'AH_OE'
p906
g900
tp907
a(S'AH_Y'
p908
S'Z_P'
p909
tp910
a(S'AH_O'
p911
g909
tp912
a(S'AH_U'
p913
g909
tp914
a(S'AH_OE'
p915
g909
tp916
a(S'UH_Y'
p917
g909
tp918
a(S'UH_O'
p919
g909
tp920
a(S'UH_U'
p921
g909
tp922
a(S'UH_OE'
p923
g909
tp924
a(S'UH_U'
p925
S'S_S'
p926
tp927
a(S'IH_U'
p928
S'Z_S'
p929
tp930
a(S'IH_I'
p931
g929
tp932
a(S'IH_A'
p933
g929
tp934
a(S'IH_Y'
p935
g929
tp936
a(S'IH_O'
p937
g929
tp938
a(S'IH_OE'
p939
g929
tp940
a(S'IH_E'
p941
g929
tp942
a(S'AH_U'
p943
g929
tp944
a(S'AH_I'
p945
g929
tp946
a(S'AH_A'
p947
g929
tp948
a(S'AH_Y'
p949
g929
tp950
a(S'AH_O'
p951
g929
tp952
a(S'AH_OE'
p953
g929
tp954
a(S'AH_E'
p955
g929
tp956
a(S'AE_U'
p957
g929
tp958
a(S'AE_I'
p959
g929
tp960
a(S'AE_A'
p961
g929
tp962
a(S'AE_Y'
p963
g929
tp964
a(S'AE_O'
p965
g929
tp966
a(S'AE_OE'
p967
g929
tp968
a(S'AE_E'
p969
g929
tp970
a(S'UH_U'
p971
g929
tp972
a(S'UH_I'
p973
g929
tp974
a(S'UH_A'
p975
g929
tp976
a(S'UH_Y'
p977
g929
tp978
a(S'UH_O'
p979
g929
tp980
a(S'UH_OE'
p981
g929
tp982
a(S'UH_E'
p983
g929
tp984
a(S'AH_A'
p985
S'Z_T'
p986
tp987
a(S'AH_I'
p988
g986
tp989
a(S'AH_O'
p990
g986
tp991
a(S'AH_U'
p992
g986
tp993
a(S'AH_E'
p994
g986
tp995
a(S'AH_OE'
p996
g986
tp997
a(S'AE_A'
p998
g986
tp999
a(S'AE_I'
p1000
g986
tp1001
a(S'AE_O'
p1002
g986
tp1003
a(S'AE_U'
p1004
g986
tp1005
a(S'AE_E'
p1006
g986
tp1007
a(S'AE_OE'
p1008
g986
tp1009
a(S'UH_A'
p1010
g986
tp1011
a(S'UH_I'
p1012
g986
tp1013
a(S'UH_O'
p1014
g986
tp1015
a(S'UH_U'
p1016
g986
tp1017
a(S'UH_E'
p1018
g986
tp1019
a(S'UH_OE'
p1020
g986
tp1021
a(S'AH_I'
p1022
S'S_T'
p1023
tp1024
a(S'AH_A'
p1025
g1023
tp1026
a(S'AH_Y'
p1027
g1023
tp1028
a(S'AH_OE'
p1029
g1023
tp1030
a(S'IH_U'
p1031
S'Z_V'
p1032
tp1033
a(S'IH_I'
p1034
g1032
tp1035
a(S'IH_O'
p1036
g1032
tp1037
a(S'IH_OE'
p1038
g1032
tp1039
a(S'IH_E'
p1040
g1032
tp1041
a(S'IH_Y'
p1042
g1032
tp1043
a(S'IH_A'
p1044
g1032
tp1045
a(S'AH_U'
p1046
g1032
tp1047
a(S'AH_I'
p1048
g1032
tp1049
a(S'AH_O'
p1050
g1032
tp1051
a(S'AH_OE'
p1052
g1032
tp1053
a(S'AH_E'
p1054
g1032
tp1055
a(S'AH_Y'
p1056
g1032
tp1057
a(S'AH_A'
p1058
g1032
tp1059
a(S'AE_U'
p1060
g1032
tp1061
a(S'AE_I'
p1062
g1032
tp1063
a(S'AE_O'
p1064
g1032
tp1065
a(S'AE_OE'
p1066
g1032
tp1067
a(S'AE_E'
p1068
g1032
tp1069
a(S'AE_Y'
p1070
g1032
tp1071
a(S'AE_A'
p1072
g1032
tp1073
a(S'UH_U'
p1074
g1032
tp1075
a(S'UH_I'
p1076
g1032
tp1077
a(S'UH_O'
p1078
g1032
tp1079
a(S'UH_OE'
p1080
g1032
tp1081
a(S'UH_E'
p1082
g1032
tp1083
a(S'UH_Y'
p1084
g1032
tp1085
a(S'UH_A'
p1086
g1032
tp1087
a(S'AH_I'
p1088
S'S_V'
p1089
tp1090
a(S'AH_Y'
p1091
g1089
tp1092
a(S'AH_OE'
p1093
g1089
tp1094
a(S'AH_U'
p1095
g1089
tp1096
a(S'AH_O'
p1097
g1089
tp1098
a(S'UH_I'
p1099
g1089
tp1100
a(S'UH_Y'
p1101
g1089
tp1102
a(S'UH_OE'
p1103
g1089
tp1104
a(S'UH_U'
p1105
g1089
tp1106
a(S'UH_O'
p1107
g1089
tp1108
a(S'IH_Y'
p1109
S'Z_Z'
p1110
tp1111
a(S'IH_I'
p1112
g1110
tp1113
a(S'IH_O'
p1114
g1110
tp1115
a(S'IH_U'
p1116
g1110
tp1117
a(S'IH_E'
p1118
g1110
tp1119
a(S'IH_OE'
p1120
g1110
tp1121
a(S'AH_Y'
p1122
g1110
tp1123
a(S'AH_I'
p1124
g1110
tp1125
a(S'AH_O'
p1126
g1110
tp1127
a(S'AH_U'
p1128
g1110
tp1129
a(S'AH_E'
p1130
g1110
tp1131
a(S'AH_OE'
p1132
g1110
tp1133
a(S'AE_Y'
p1134
g1110
tp1135
a(S'AE_I'
p1136
g1110
tp1137
a(S'AE_O'
p1138
g1110
tp1139
a(S'AE_U'
p1140
g1110
tp1141
a(S'AE_E'
p1142
g1110
tp1143
a(S'AE_OE'
p1144
g1110
tp1145
a(S'UH_Y'
p1146
g1110
tp1147
a(S'UH_I'
p1148
g1110
tp1149
a(S'UH_O'
p1150
g1110
tp1151
a(S'UH_U'
p1152
g1110
tp1153
a(S'UH_E'
p1154
g1110
tp1155
a(S'UH_OE'
p1156
g1110
tp1157
a(S'IH_I'
p1158
S'S_Z'
p1159
tp1160
a(S'IH_A'
p1161
g1159
tp1162
a(S'IH_OE'
p1163
g1159
tp1164
a(S'IH_U'
p1165
g1159
tp1166
a(S'IH_O'
p1167
g1159
tp1168
a(S'AH_I'
p1169
g1159
tp1170
a(S'AH_A'
p1171
g1159
tp1172
a(S'AH_OE'
p1173
g1159
tp1174
a(S'AH_U'
p1175
g1159
tp1176
a(S'AH_O'
p1177
g1159
tp1178
a(S'UH_I'
p1179
g1159
tp1180
a(S'UH_A'
p1181
g1159
tp1182
a(S'UH_OE'
p1183
g1159
tp1184
a(S'UH_U'
p1185
g1159
tp1186
a(S'UH_O'
p1187
g1159
tp1188
a(S'AE_I'
p1189
S'Z_SH'
p1190
tp1191
a(S'AE_O'
p1192
g1190
tp1193
a(S'AE_E'
p1194
g1190
tp1195
a(S'AE_A'
p1196
g1190
tp1197
a(S'AE_OE'
p1198
g1190
tp1199
a(S'AE_Y'
p1200
g1190
tp1201
a(S'AE_U'
p1202
g1190
tp1203
a(S'IH_I'
p1204
g1190
tp1205
a(S'IH_O'
p1206
g1190
tp1207
a(S'IH_E'
p1208
g1190
tp1209
a(S'IH_A'
p1210
g1190
tp1211
a(S'IH_OE'
p1212
g1190
tp1213
a(S'IH_Y'
p1214
g1190
tp1215
a(S'IH_U'
p1216
g1190
tp1217
a(S'UH_I'
p1218
g1190
tp1219
a(S'UH_O'
p1220
g1190
tp1221
a(S'UH_E'
p1222
g1190
tp1223
a(S'UH_A'
p1224
g1190
tp1225
a(S'UH_OE'
p1226
g1190
tp1227
a(S'UH_Y'
p1228
g1190
tp1229
a(S'UH_U'
p1230
g1190
tp1231
a(S'AH_I'
p1232
g1190
tp1233
a(S'AH_O'
p1234
g1190
tp1235
a(S'AH_E'
p1236
g1190
tp1237
a(S'AH_A'
p1238
g1190
tp1239
a(S'AH_OE'
p1240
g1190
tp1241
a(S'AH_Y'
p1242
g1190
tp1243
a(S'AH_U'
p1244
g1190
tp1245
a(S'IH_Y'
p1246
S'Z_B'
p1247
tp1248
a(S'IH_I'
p1249
g1247
tp1250
a(S'IH_A'
p1251
g1247
tp1252
a(S'IH_U'
p1253
g1247
tp1254
a(S'IH_E'
p1255
g1247
tp1256
a(S'AH_Y'
p1257
g1247
tp1258
a(S'AH_I'
p1259
g1247
tp1260
a(S'AH_A'
p1261
g1247
tp1262
a(S'AH_U'
p1263
g1247
tp1264
a(S'AH_E'
p1265
g1247
tp1266
a(S'AE_Y'
p1267
g1247
tp1268
a(S'AE_I'
p1269
g1247
tp1270
a(S'AE_A'
p1271
g1247
tp1272
a(S'AE_U'
p1273
g1247
tp1274
a(S'AE_E'
p1275
g1247
tp1276
a(S'UH_Y'
p1277
g1247
tp1278
a(S'UH_I'
p1279
g1247
tp1280
a(S'UH_A'
p1281
g1247
tp1282
a(S'UH_U'
p1283
g1247
tp1284
a(S'UH_E'
p1285
g1247
tp1286
a(S'IH_I'
p1287
S'S_B'
p1288
tp1289
a(S'IH_U'
p1290
g1288
tp1291
a(S'UH_I'
p1292
g1288
tp1293
a(S'UH_U'
p1294
g1288
tp1295
a(S'IH_Y'
p1296
S'Z_D'
p1297
tp1298
a(S'IH_I'
p1299
g1297
tp1300
a(S'IH_O'
p1301
g1297
tp1302
a(S'IH_U'
p1303
g1297
tp1304
a(S'IH_E'
p1305
g1297
tp1306
a(S'IH_OE'
p1307
g1297
tp1308
a(S'AH_Y'
p1309
g1297
tp1310
a(S'AH_I'
p1311
g1297
tp1312
a(S'AH_O'
p1313
g1297
tp1314
a(S'AH_U'
p1315
g1297
tp1316
a(S'AH_E'
p1317
g1297
tp1318
a(S'AH_OE'
p1319
g1297
tp1320
a(S'AE_Y'
p1321
g1297
tp1322
a(S'AE_I'
p1323
g1297
tp1324
a(S'AE_O'
p1325
g1297
tp1326
a(S'AE_U'
p1327
g1297
tp1328
a(S'AE_E'
p1329
g1297
tp1330
a(S'AE_OE'
p1331
g1297
tp1332
a(S'UH_Y'
p1333
g1297
tp1334
a(S'UH_I'
p1335
g1297
tp1336
a(S'UH_O'
p1337
g1297
tp1338
a(S'UH_U'
p1339
g1297
tp1340
a(S'UH_E'
p1341
g1297
tp1342
a(S'UH_OE'
p1343
g1297
tp1344
a(S'AE_E'
p1345
S'S_D'
p1346
tp1347
a(S'AH_I'
p1348
S'S_G'
p1349
tp1350
a(S'AH_A'
p1351
g1349
tp1352
a(S'AH_Y'
p1353
g1349
tp1354
a(S'AH_OE'
p1355
g1349
tp1356
a(S'AH_U'
p1357
g1349
tp1358
a(S'AH_O'
p1359
g1349
tp1360
a(S'IH_I'
p1361
g1349
tp1362
a(S'IH_A'
p1363
g1349
tp1364
a(S'IH_Y'
p1365
g1349
tp1366
a(S'IH_OE'
p1367
g1349
tp1368
a(S'IH_U'
p1369
g1349
tp1370
a(S'IH_O'
p1371
g1349
tp1372
a(S'UH_I'
p1373
g1349
tp1374
a(S'UH_A'
p1375
g1349
tp1376
a(S'UH_Y'
p1377
g1349
tp1378
a(S'UH_OE'
p1379
g1349
tp1380
a(S'UH_U'
p1381
g1349
tp1382
a(S'UH_O'
p1383
g1349
tp1384
a(S'AH_A'
p1385
S'S_F'
p1386
tp1387
a(S'AH_U'
p1388
g1386
tp1389
a(S'AH_Y'
p1390
g1386
tp1391
a(S'AH_E'
p1392
g1386
tp1393
a(S'AH_OE'
p1394
g1386
tp1395
a(S'UH_A'
p1396
g1386
tp1397
a(S'UH_U'
p1398
g1386
tp1399
a(S'UH_Y'
p1400
g1386
tp1401
a(S'UH_E'
p1402
g1386
tp1403
a(S'UH_OE'
p1404
g1386
tp1405
a(S'AE_A'
p1406
g1386
tp1407
a(S'AE_U'
p1408
g1386
tp1409
a(S'AE_Y'
p1410
g1386
tp1411
a(S'AE_E'
p1412
g1386
tp1413
a(S'AE_OE'
p1414
g1386
tp1415
a(S'AH_Y'
p1416
S'Z_K'
p1417
tp1418
a(S'AH_O'
p1419
g1417
tp1420
a(S'AH_OE'
p1421
g1417
tp1422
a.